##############################################################################
#                                                                            #
# IAR ARM ANSI C/C++ Compiler V4.42A/W32 EVALUATION    15/Mar/2015  14:45:03 #
# Copyright 1999-2005 IAR Systems. All rights reserved.                      #
#                                                                            #
#    Cpu mode        =  interwork                                            #
#    Endian          =  little                                               #
#    Stack alignment =  4                                                    #
#    Source file     =  D:\kl\dev\Embedded Workbench 4.0                     #
#                       Evaluation\Project\test_Read-Write_PNG\main.cpp      #
#    Command line    =  "D:\kl\dev\Embedded Workbench 4.0                    #
#                       Evaluation\Project\test_Read-Write_PNG\main.cpp" -D  #
#                       NDEBUG -D PNG_DEPRECATED -D PNG_USER_MEM_SUPPORTED   #
#                       -lCN "D:\kl\dev\Embedded Workbench 4.0               #
#                       Evaluation\Project\test_Read-Write_PNG\Release\List\ #
#                       " -lA "D:\kl\dev\Embedded Workbench 4.0              #
#                       Evaluation\Project\test_Read-Write_PNG\Release\List\ #
#                       " -o "D:\kl\dev\Embedded Workbench 4.0               #
#                       Evaluation\Project\test_Read-Write_PNG\Release\Obj\" #
#                        -s9 --no_unroll --no_code_motion --cpu_mode arm     #
#                       --endian little --cpu ARM926EJ-S --stack_align 4     #
#                       --interwork -e --enable_multibytes --fpu None        #
#                       --eec++ --dlib_config "D:\kl\dev\Embedded Workbench  #
#                       4.0 Evaluation\ARM\LIB\dl5tpainl8n.h" -I             #
#                       "D:\kl\dev\Embedded Workbench 4.0                    #
#                       Evaluation\ARM\INC\" --inline_threshold=2            #
#    List file       =  D:\kl\dev\Embedded Workbench 4.0                     #
#                       Evaluation\Project\test_Read-Write_PNG\Release\List\ #
#                       main.lst                                             #
#    Object file     =  D:\kl\dev\Embedded Workbench 4.0                     #
#                       Evaluation\Project\test_Read-Write_PNG\Release\Obj\m #
#                       ain.r79                                              #
#                                                                            #
#                                                                            #
##############################################################################

D:\kl\dev\Embedded Workbench 4.0 Evaluation\Project\test_Read-Write_PNG\main.cpp
      1          #include "main.h"
      2          

   \                                 In segment DATA_Z, align 4, align-sorted
      3          int x, y;
   \                     x:
   \   00000000                      DS8 4

   \                                 In segment DATA_Z, align 4, align-sorted
   \                     y:
   \   00000000                      DS8 4
      4          pnglib_dll_t *dll;
   \                     dll:
   \   00000004                      DS8 4
      5          png_uint_32 width, height;
      6          png_byte color_type;
      7          png_byte bit_depth;
      8          
      9          png_structp png_read_ptr;
   \                     png_read_ptr:
   \   00000008                      DS8 4
     10          png_infop info_read_ptr;
   \                     info_read_ptr:
   \   0000000C                      DS8 4
     11          png_structp png_write_ptr;
   \                     png_write_ptr:
   \   00000010                      DS8 4
     12          png_infop info_write_ptr;
   \                     info_write_ptr:
   \   00000014                      DS8 4
     13          png_bytep * row_pointers;
   \                     row_pointers:
   \   00000018                      DS8 4

   \                                 In segment DATA_Z, align 4, align-sorted
   \                     width:
   \   00000000                      DS8 4

   \                                 In segment DATA_Z, align 4, align-sorted
   \                     height:
   \   00000000                      DS8 4

   \                                 In segment DATA_Z, align 1, align-sorted
   \                     color_type:
   \   00000000                      DS8 1

   \                                 In segment DATA_Z, align 1, align-sorted
   \                     bit_depth:
   \   00000000                      DS8 1
     14          
     15          //char *buf;
     16          
     17          int ReadWrite( wchar_t *fpath, wchar_t *fname, wchar_t *fname2 );
     18          

   \                                 In segment CODE, align 4, keep-with-next
     19          void log(char* str)
     20          {
   \                     ??log:
   \   00000000   30402DE9           PUSH     {R4,R5,LR}
   \   00000004   96DF4DE2           SUB      SP,SP,#+600
   \   00000008   0040A0E1           MOV      R4,R0
     21          	char str0[600];
     22            int file;
     23            if((file=w_fopen(L"card/test/png/Log.txt", WA_Create+WA_Append, 0x1FF, 0))>-1)
   \   0000000C   50009FE5           LDR      R0,??log_1       ;; `?<Constant "\\n---------------\\n %s">` + 24
   \   00000010   0030A0E3           MOV      R3,#+0
   \   00000014   FF20A0E3           MOV      R2,#+255
   \   00000018   402F82E3           ORR      R2,R2,#0x100
   \   0000001C   0C10A0E3           MOV      R1,#+12
   \   00000020   F80200EF           SWI      +760
   \   00000024   0050B0E1           MOVS     R5,R0
   \   00000028   0B00004A           BMI      ??log_2
     24            {
     25              sprintf(str0,"\n---------------\n %s", str );
   \   0000002C   34109FE5           LDR      R1,??log_1+0x4   ;; `?<Constant "\\n---------------\\n %s">`
   \   00000030   0420A0E1           MOV      R2,R4
   \   00000034   0D00A0E1           MOV      R0,SP
   \   00000038   140100EF           SWI      +276
     26              w_fwrite(file, str0, strlen(str0));                       
   \   0000003C   0D00A0E1           MOV      R0,SP
   \   00000040   5A0100EF           SWI      +346
   \   00000044   0020A0E1           MOV      R2,R0
   \   00000048   0D10A0E1           MOV      R1,SP
   \   0000004C   0500A0E1           MOV      R0,R5
   \   00000050   FA0200EF           SWI      +762
     27              w_fclose(file);
   \   00000054   0500A0E1           MOV      R0,R5
   \   00000058   FD0200EF           SWI      +765
     28            }
     29          }
   \                     ??log_2:
   \   0000005C   96DF8DE2           ADD      SP,SP,#+600      ;; stack cleaning
   \   00000060   3080BDE8           POP      {R4,R5,PC}       ;; return
   \                     ??log_1:
   \   00000064   ........           DC32     `?<Constant "\\n---------------\\n %s">` + 24
   \   00000068   ........           DC32     `?<Constant "\\n---------------\\n %s">`
     30          

   \                                 In segment CODE, align 4, keep-with-next
     31          void elf_exit(void)
     32          {
   \                     ??elf_exit:
   \   00000000   00402DE9           PUSH     {LR}
     33            kill_data(&ELF_BEGIN, (void(*)(void*))mfree_adr());
   \   00000004   048100EF           SWI      +33028
   \   00000008   0010A0E1           MOV      R1,R0
   \   0000000C   04009FE5           LDR      R0,??elf_exit_1  ;; ELF_BEGIN
   \   00000010   0040BDE8           POP      {LR}             ;; Pop
   \   00000014   ........           _BF      kill_data,??kill_data??rA  ;; tailcall
   \                     ??elf_exit_1:
   \   00000018   ........           DC32     ELF_BEGIN
     34          }
     35          

   \                                 In segment CODE, align 4, keep-with-next
     36          void png_user_read(png_structp png_ptr, png_bytep data, png_size_t size)
     37          {
   \                     ??png_user_read:
   \   00000000   00402DE9           PUSH     {LR}
     38          	
     39            int *f = (int*)png_ptr->io_ptr;
     40            fread(*f, data, size);
   \   00000004   140090E5           LDR      R0,[R0, #+20]
   \   00000008   000090E5           LDR      R0,[R0, #+0]
   \   0000000C   180100EF           SWI      +280
     41          }
   \   00000010   0080BDE8           POP      {PC}             ;; return
     42          

   \                                 In segment CODE, align 4, keep-with-next
     43          void png_user_write(png_structp png_ptr, png_bytep data, png_size_t size)
     44          {
   \                     ??png_user_write:
   \   00000000   70402DE9           PUSH     {R4-R6,LR}
   \   00000004   0040A0E1           MOV      R4,R0
     45          	//---------------------
     46          	log("png_user_write");
   \   00000008   20009FE5           LDR      R0,??png_user_write_1  ;; `?<Constant "png_user_write">`
   \   0000000C   0150A0E1           MOV      R5,R1
   \   00000010   0260A0E1           MOV      R6,R2
   \   00000014   ........           BL       ??log
     47            //---------------------
     48            int *f = (int*)png_ptr->io_ptr;
     49            fwrite(*f, data, size);
   \   00000018   140094E5           LDR      R0,[R4, #+20]
   \   0000001C   0620A0E1           MOV      R2,R6
   \   00000020   000090E5           LDR      R0,[R0, #+0]
   \   00000024   0510A0E1           MOV      R1,R5
   \   00000028   190100EF           SWI      +281
     50          }
   \   0000002C   7080BDE8           POP      {R4-R6,PC}       ;; return
   \                     ??png_user_write_1:
   \   00000030   ........           DC32     `?<Constant "png_user_write">`
     51          

   \                                 In segment CODE, align 4, keep-with-next
     52          int main(void)
     53          {
   \                     main:
   \   00000000   10402DE9           PUSH     {R4,LR}
     54            log("\n---------------\n main");
   \   00000004   78419FE5           LDR      R4,??main_1      ;; `?<Constant L"\\x74\\x65\\x73\\x74\\x5f\\x69\\x6e\\x70\\`
   \   00000008   200084E2           ADD      R0,R4,#+32
   \   0000000C   ........           BL       ??log
     55            
     56              switch(ReadWrite(L"card/test/png/",L"test_input.png", L"test_output.png"))
   \   00000010   D22F84E2           ADD      R2,R4,#+840
   \   00000014   0410A0E1           MOV      R1,R4
   \   00000018   CA0F84E2           ADD      R0,R4,#+808
   \   0000001C   ........           BL       ??ReadWrite
   \   00000020   010040E2           SUB      R0,R0,#+1
   \   00000024   080050E3           CMP      R0,#+8
   \   00000028   4000008A           BHI      ??main_2
   \   0000002C   011F8FE2           ADR      R1,??main_0
   \   00000030   0010D1E7           LDRB     R1,[R1, R0]
   \   00000034   01F18FE0           ADD      PC,PC,R1, LSL #+2
   \                     ??main_0:
   \   00000038   02041319           DC8      +2,+4,+19,+25
   \   0000003C   1F252B31           DC8      +31,+37,+43,+49
   \   00000040   37000000           DC8      +55,+0,+0,+0
     57              {
     58                case 1: MessageBox(EMPTY_TEXTID,STR("PNG file convert\nERROR!!!\n нет входного файла"),NOIMAGE,1,5000,0); break;
   \                     ??main_3:
   \   00000044   3C019FE5           LDR      R0,??main_1+0x4  ;; `?<Constant L"\\x74\\x65\\x73\\x74\\x5f\\x69\\x6e\\x70\\` + 56
   \   00000048   390000EA           B        ??main_4
     59                case 2: MessageBox(EMPTY_TEXTID,STR("PNG file convert\nERROR!!!\n это не png"),NOIMAGE,1,5000,0); break;
   \                     ??main_5:
   \   0000004C   38019FE5           LDR      R0,??main_1+0x8  ;; `?<Constant L"\\x74\\x65\\x73\\x74\\x5f\\x69\\x6e\\x70\\` + 148
   \   00000050   FF40A0E3           MOV      R4,#+255
   \   00000054   FF4C84E3           ORR      R4,R4,#0xFF00
   \   00000058   0420A0E1           MOV      R2,R4
   \   0000005C   0010A0E3           MOV      R1,#+0
   \   00000060   5D0100EF           SWI      +349
   \   00000064   0010A0E1           MOV      R1,R0
   \   00000068   0000A0E3           MOV      R0,#+0
   \   0000006C   01002DE9           PUSH     {R0}
   \   00000070   0130A0E3           MOV      R3,#+1
   \   00000074   0420A0E1           MOV      R2,R4
   \   00000078   8800A0E3           MOV      R0,#+136
   \   0000007C   4C0D80E3           ORR      R0,R0,#0x1300
   \   00000080   01002DE9           PUSH     {R0}
   \   00000084   370000EA           B        ??main_6
     60                case 3: MessageBox(EMPTY_TEXTID,STR("PNG file convert\nERROR!!!\n нет структуры reed"),NOIMAGE,1,5000,0); break;
   \                     ??main_7:
   \   00000088   00019FE5           LDR      R0,??main_1+0xC  ;; `?<Constant L"\\x74\\x65\\x73\\x74\\x5f\\x69\\x6e\\x70\\` + 224
   \   0000008C   FF40A0E3           MOV      R4,#+255
   \   00000090   FF4C84E3           ORR      R4,R4,#0xFF00
   \   00000094   0420A0E1           MOV      R2,R4
   \   00000098   0010A0E3           MOV      R1,#+0
   \   0000009C   280000EA           B        ??main_8
     61                case 4: MessageBox(EMPTY_TEXTID,STR("PNG file convert\nERROR!!!\n нет структуры reed inf"),NOIMAGE,1,5000,0); break;
   \                     ??main_9:
   \   000000A0   EC009FE5           LDR      R0,??main_1+0x10  ;; `?<Constant L"\\x74\\x65\\x73\\x74\\x5f\\x69\\x6e\\x70\\` + 316
   \   000000A4   FF40A0E3           MOV      R4,#+255
   \   000000A8   FF4C84E3           ORR      R4,R4,#0xFF00
   \   000000AC   0420A0E1           MOV      R2,R4
   \   000000B0   0010A0E3           MOV      R1,#+0
   \   000000B4   220000EA           B        ??main_8
     62                case 5: MessageBox(EMPTY_TEXTID,STR("PNG file convert\nERROR!!!\n нет выходного файла"),NOIMAGE,1,5000,0); break;
   \                     ??main_10:
   \   000000B8   D8009FE5           LDR      R0,??main_1+0x14  ;; `?<Constant L"\\x74\\x65\\x73\\x74\\x5f\\x69\\x6e\\x70\\` + 416
   \   000000BC   FF40A0E3           MOV      R4,#+255
   \   000000C0   FF4C84E3           ORR      R4,R4,#0xFF00
   \   000000C4   0420A0E1           MOV      R2,R4
   \   000000C8   0010A0E3           MOV      R1,#+0
   \   000000CC   1C0000EA           B        ??main_8
     63                case 6: MessageBox(EMPTY_TEXTID,STR("PNG file convert\nERROR!!!\n нет структуры write"),NOIMAGE,1,5000,0); break;
   \                     ??main_11:
   \   000000D0   C4009FE5           LDR      R0,??main_1+0x18  ;; `?<Constant L"\\x74\\x65\\x73\\x74\\x5f\\x69\\x6e\\x70\\` + 512
   \   000000D4   FF40A0E3           MOV      R4,#+255
   \   000000D8   FF4C84E3           ORR      R4,R4,#0xFF00
   \   000000DC   0420A0E1           MOV      R2,R4
   \   000000E0   0010A0E3           MOV      R1,#+0
   \   000000E4   160000EA           B        ??main_8
     64                case 7: MessageBox(EMPTY_TEXTID,STR("PNG file convert\nERROR!!!\n нет се. wr. inf"),NOIMAGE,1,5000,0); break;
   \                     ??main_12:
   \   000000E8   B0009FE5           LDR      R0,??main_1+0x1C  ;; `?<Constant L"\\x74\\x65\\x73\\x74\\x5f\\x69\\x6e\\x70\\` + 608
   \   000000EC   FF40A0E3           MOV      R4,#+255
   \   000000F0   FF4C84E3           ORR      R4,R4,#0xFF00
   \   000000F4   0420A0E1           MOV      R2,R4
   \   000000F8   0010A0E3           MOV      R1,#+0
   \   000000FC   100000EA           B        ??main_8
     65                case 8: MessageBox(EMPTY_TEXTID,STR("PNG file convert\nERROR!!!\n нет входного файла"),NOIMAGE,1,5000,0); break;
   \                     ??main_13:
   \   00000100   80009FE5           LDR      R0,??main_1+0x4  ;; `?<Constant L"\\x74\\x65\\x73\\x74\\x5f\\x69\\x6e\\x70\\` + 56
   \   00000104   FF40A0E3           MOV      R4,#+255
   \   00000108   FF4C84E3           ORR      R4,R4,#0xFF00
   \   0000010C   0420A0E1           MOV      R2,R4
   \   00000110   0010A0E3           MOV      R1,#+0
   \   00000114   0A0000EA           B        ??main_8
     66                case 9: MessageBox(EMPTY_TEXTID,STR("PNG file convert\nERROR!!!\n нет DLL"),NOIMAGE,1,5000,0); break;
   \                     ??main_14:
   \   00000118   84009FE5           LDR      R0,??main_1+0x20  ;; `?<Constant L"\\x74\\x65\\x73\\x74\\x5f\\x69\\x6e\\x70\\` + 696
   \   0000011C   FF40A0E3           MOV      R4,#+255
   \   00000120   FF4C84E3           ORR      R4,R4,#0xFF00
   \   00000124   0420A0E1           MOV      R2,R4
   \   00000128   0010A0E3           MOV      R1,#+0
   \   0000012C   040000EA           B        ??main_8
     67               default:  MessageBox(EMPTY_TEXTID,STR("PNG file convert ok"),NOIMAGE,1,5000,0); break;
   \                     ??main_2:
   \   00000130   70009FE5           LDR      R0,??main_1+0x24  ;; `?<Constant L"\\x74\\x65\\x73\\x74\\x5f\\x69\\x6e\\x70\\` + 768
   \                     ??main_4:
   \   00000134   FF40A0E3           MOV      R4,#+255
   \   00000138   FF4C84E3           ORR      R4,R4,#0xFF00
   \   0000013C   0420A0E1           MOV      R2,R4
   \   00000140   0010A0E3           MOV      R1,#+0
   \                     ??main_8:
   \   00000144   5D0100EF           SWI      +349
   \   00000148   0010A0E3           MOV      R1,#+0
   \   0000014C   02002DE9           PUSH     {R1}
   \   00000150   0130A0E3           MOV      R3,#+1
   \   00000154   0420A0E1           MOV      R2,R4
   \   00000158   8810A0E3           MOV      R1,#+136
   \   0000015C   4C1D81E3           ORR      R1,R1,#0x1300
   \   00000160   02002DE9           PUSH     {R1}
   \   00000164   0010A0E1           MOV      R1,R0
   \                     ??main_6:
   \   00000168   9004E0E3           MVN      R0,#-1879048192
   \   0000016C   570200EF           SWI      +599
     68              }  
     69              SUBPROC(elf_exit);
   \   00000170   34009FE5           LDR      R0,??main_1+0x28  ;; ??elf_exit
   \   00000174   08D08DE2           ADD      SP,SP,#+8
   \   00000178   080100EF           SWI      +264
     70             return 0;
   \   0000017C   0000A0E3           MOV      R0,#+0
   \   00000180   1080BDE8           POP      {R4,PC}          ;; return
   \                     ??main_1:
   \   00000184   ........           DC32     `?<Constant L"\\x74\\x65\\x73\\x74\\x5f\\x69\\x6e\\x70\\`
   \   00000188   ........           DC32     `?<Constant L"\\x74\\x65\\x73\\x74\\x5f\\x69\\x6e\\x70\\` + 56
   \   0000018C   ........           DC32     `?<Constant L"\\x74\\x65\\x73\\x74\\x5f\\x69\\x6e\\x70\\` + 148
   \   00000190   ........           DC32     `?<Constant L"\\x74\\x65\\x73\\x74\\x5f\\x69\\x6e\\x70\\` + 224
   \   00000194   ........           DC32     `?<Constant L"\\x74\\x65\\x73\\x74\\x5f\\x69\\x6e\\x70\\` + 316
   \   00000198   ........           DC32     `?<Constant L"\\x74\\x65\\x73\\x74\\x5f\\x69\\x6e\\x70\\` + 416
   \   0000019C   ........           DC32     `?<Constant L"\\x74\\x65\\x73\\x74\\x5f\\x69\\x6e\\x70\\` + 512
   \   000001A0   ........           DC32     `?<Constant L"\\x74\\x65\\x73\\x74\\x5f\\x69\\x6e\\x70\\` + 608
   \   000001A4   ........           DC32     `?<Constant L"\\x74\\x65\\x73\\x74\\x5f\\x69\\x6e\\x70\\` + 696
   \   000001A8   ........           DC32     `?<Constant L"\\x74\\x65\\x73\\x74\\x5f\\x69\\x6e\\x70\\` + 768
   \   000001AC   ........           DC32     ??elf_exit
     71          }
     72          //==============================================================================
     73          //==============================================================================
     74          //==============================================================================
     75          

   \                                 In segment CODE, align 4, keep-with-next
     76          int ReadWrite( wchar_t *fpath, wchar_t *fname, wchar_t *fname2 )
     77          {
   \                     ??ReadWrite:
   \   00000000   F0412DE9           PUSH     {R4-R8,LR}
     78          
     79          	//---------------------
     80          	log("ReadWrite");
   \   00000004   F4749FE5           LDR      R7,??ReadWrite_1  ;; `?<Constant "dll->png_read_image(p...">`
   \   00000008   5CD04DE2           SUB      SP,SP,#+92
   \   0000000C   0040A0E1           MOV      R4,R0
   \   00000010   0180A0E1           MOV      R8,R1
   \   00000014   0250A0E1           MOV      R5,R2
   \   00000018   700F87E2           ADD      R0,R7,#+448
   \   0000001C   ........           BL       ??log
     81            //---------------------
     82          //------------------------------------------------  
     83            png_uint_32 width, height;
     84            int bit_depth, color_type, interlace_type;
     85            int compression_type, filter_method;
     86          
     87            FSTAT _fstat_0;
     88            if (fstat(GetDir(DIR_DLL),L"pnglib.dll",&_fstat_0)!=-1)
   \   00000020   1800A0E3           MOV      R0,#+24
   \   00000024   050100EF           SWI      +261
   \   00000028   24208DE2           ADD      R2,SP,#+36
   \   0000002C   731F87E2           ADD      R1,R7,#+460
   \   00000030   1C0100EF           SWI      +284
   \   00000034   010070E3           CMN      R0,#+1
   \   00000038   0600000A           BEQ      ??ReadWrite_2
     89            {
     90              dll = (pnglib_dll_t *)LoadDLL(PNG_DLL_FILE_NAME);
   \   0000003C   C0649FE5           LDR      R6,??ReadWrite_1+0x4  ;; y
   \   00000040   C0049FE5           LDR      R0,??ReadWrite_1+0x8  ;; `?<Constant "dll->png_read_image(p...">` + 460
   \   00000044   0E0100EF           SWI      +270
   \   00000048   040086E5           STR      R0,[R6, #+4]
     91              if (!dll)  return 9;
   \   0000004C   000050E3           CMP      R0,#+0
   \   00000050   0900A003           MOVEQ    R0,#+9
   \   00000054   2701000A           BEQ      ??ReadWrite_3
     92            }
     93            
     94            //------------------------------------------------
     95          	//---------------------
     96          	log("pnglib.dll");
   \                     ??ReadWrite_2:
   \   00000058   AC049FE5           LDR      R0,??ReadWrite_1+0xC  ;; `?<Constant "dll->png_read_image(p...">` + 484
   \   0000005C   ........           BL       ??log
     97            //---------------------
     98          //------------------------------------------------
     99          
    100            int fpIn;
    101            int fpOut;
    102          
    103          
    104            FSTAT _fstat;
    105            //wchar_t path_card[256];
    106            //wstrcpy(path_card,GetDir(DIR_OTHER | MEM_EXTERNAL));
    107            //wstrcat(path_card,L"/test");
    108            if (fstat( fpath, fname, &_fstat)!=-1)
   \   00000060   40208DE2           ADD      R2,SP,#+64
   \   00000064   0810A0E1           MOV      R1,R8
   \   00000068   0400A0E1           MOV      R0,R4
   \   0000006C   1C0100EF           SWI      +284
   \   00000070   010070E3           CMN      R0,#+1
   \   00000074   0B00000A           BEQ      ??ReadWrite_4
    109            {
    110              if (!((fpIn=_fopen(fpath, fname, WA_Read, 0x1FF,0))>=0))
   \   00000078   0000A0E3           MOV      R0,#+0
   \   0000007C   01002DE9           PUSH     {R0}
   \   00000080   FF30A0E3           MOV      R3,#+255
   \   00000084   403F83E3           ORR      R3,R3,#0x100
   \   00000088   0120A0E3           MOV      R2,#+1
   \   0000008C   0810A0E1           MOV      R1,R8
   \   00000090   0400A0E1           MOV      R0,R4
   \   00000094   160100EF           SWI      +278
   \   00000098   0C008DE5           STR      R0,[SP, #+12]
   \   0000009C   000050E3           CMP      R0,#+0
   \   000000A0   04D08DE2           ADD      SP,SP,#+4
   \   000000A4   0100005A           BPL      ??ReadWrite_5
    111                  return 1;
   \                     ??ReadWrite_4:
   \   000000A8   0100A0E3           MOV      R0,#+1
   \   000000AC   2A0000EA           B        ??ReadWrite_6
    112            }
    113            else
    114              return 1;
    115              
    116          	//---------------------
    117          	log("fpIn=_fopen");
    118            //---------------------
    119            
    120            png_read_ptr = dll->png_create_read_struct_2(PNG_LIBPNG_VER_STRING,
    121                  (png_voidp)0, 0, 0, (png_voidp)0, NULL, NULL);
   \                     ??ReadWrite_5:
   \   000000B0   4C649FE5           LDR      R6,??ReadWrite_1+0x4  ;; y
   \   000000B4   7C0F87E2           ADD      R0,R7,#+496
   \   000000B8   ........           BL       ??log
   \   000000BC   0000A0E3           MOV      R0,#+0
   \   000000C0   01002DE9           PUSH     {R0}
   \   000000C4   01002DE9           PUSH     {R0}
   \   000000C8   01002DE9           PUSH     {R0}
   \   000000CC   0020A0E1           MOV      R2,R0
   \   000000D0   0010A0E1           MOV      R1,R0
   \   000000D4   0030A0E3           MOV      R3,#+0
   \   000000D8   7F0F87E2           ADD      R0,R7,#+508
   \   000000DC   047096E5           LDR      R7,[R6, #+4]
   \   000000E0   0C7097E5           LDR      R7,[R7, #+12]
   \   000000E4   37FF2FE1           BLX      R7
   \   000000E8   080086E5           STR      R0,[R6, #+8]
    122            if (png_read_ptr == NULL)
   \   000000EC   000050E3           CMP      R0,#+0
   \   000000F0   0CD08DE2           ADD      SP,SP,#+12
    123                return 3;
   \   000000F4   0300A003           MOVEQ    R0,#+3
   \   000000F8   FE00000A           BEQ      ??ReadWrite_3
    124            //---------------------
    125          	log("dll->png_create_read_struct_2");
   \   000000FC   FC739FE5           LDR      R7,??ReadWrite_1  ;; `?<Constant "dll->png_read_image(p...">`
   \   00000100   810F87E2           ADD      R0,R7,#+516
   \   00000104   ........           BL       ??log
    126            //---------------------
    127            info_read_ptr = dll->png_create_info_struct(png_read_ptr);
   \   00000108   080096E5           LDR      R0,[R6, #+8]
   \   0000010C   041096E5           LDR      R1,[R6, #+4]
   \   00000110   141091E5           LDR      R1,[R1, #+20]
   \   00000114   31FF2FE1           BLX      R1
   \   00000118   0C0086E5           STR      R0,[R6, #+12]
    128            //---------------------
    129          	log("dll->png_create_info_struct");
   \   0000011C   890F87E2           ADD      R0,R7,#+548
   \   00000120   ........           BL       ??log
    130            //---------------------
    131            
    132            if (info_read_ptr == NULL)
   \   00000124   0C0096E5           LDR      R0,[R6, #+12]
   \   00000128   000050E3           CMP      R0,#+0
   \   0000012C   0C00001A           BNE      ??ReadWrite_7
    133            {
    134              fclose(fpIn);
   \   00000130   08009DE5           LDR      R0,[SP, #+8]
   \   00000134   170100EF           SWI      +279
    135              dll->png_destroy_read_struct(&png_read_ptr, 0, 0 );
   \   00000138   043096E5           LDR      R3,[R6, #+4]
   \   0000013C   0020A0E3           MOV      R2,#+0
   \   00000140   483093E5           LDR      R3,[R3, #+72]
   \   00000144   0010A0E3           MOV      R1,#+0
   \   00000148   080086E2           ADD      R0,R6,#+8
   \   0000014C   33FF2FE1           BLX      R3
    136              //---------------------
    137            	log("dll->png_destroy_read_struct");
   \   00000150   B8039FE5           LDR      R0,??ReadWrite_1+0x10  ;; `?<Constant "dll->png_read_image(p...">` + 576
   \   00000154   ........           BL       ??log
    138              //---------------------
    139              return 4;
   \   00000158   0400A0E3           MOV      R0,#+4
   \                     ??ReadWrite_6:
   \   0000015C   5CD08DE2           ADD      SP,SP,#+92
   \   00000160   F081BDE8           POP      {R4-R8,PC}
    140            }
    141             
    142          
    143            dll->png_set_read_fn(png_read_ptr, &fpIn, (png_rw_ptr)png_user_read );
   \                     ??ReadWrite_7:
   \   00000164   043096E5           LDR      R3,[R6, #+4]
   \   00000168   A4239FE5           LDR      R2,??ReadWrite_1+0x14  ;; ??png_user_read
   \   0000016C   080096E5           LDR      R0,[R6, #+8]
   \   00000170   183093E5           LDR      R3,[R3, #+24]
   \   00000174   08108DE2           ADD      R1,SP,#+8
   \   00000178   33FF2FE1           BLX      R3
    144            //---------------------
    145          	log("dll->png_set_read_fn(png_read_ptr...");
   \   0000017C   980F87E2           ADD      R0,R7,#+608
   \   00000180   ........           BL       ??log
    146            //---------------------
    147           
    148            dll->png_read_info(png_read_ptr, info_read_ptr);
   \   00000184   042096E5           LDR      R2,[R6, #+4]
   \   00000188   0C1096E5           LDR      R1,[R6, #+12]
   \   0000018C   080096E5           LDR      R0,[R6, #+8]
   \   00000190   202092E5           LDR      R2,[R2, #+32]
   \   00000194   32FF2FE1           BLX      R2
    149            //---------------------
    150          	log("dll->png_read_info(png_read_ptr, info_read_ptr)");
   \   00000198   A20F87E2           ADD      R0,R7,#+648
   \   0000019C   ........           BL       ??log
    151            //---------------------
    152          
    153            dll->png_get_IHDR(png_read_ptr, info_read_ptr, &width, &height, &bit_depth,
    154            	                 &color_type, &interlace_type, &compression_type, &filter_method);
   \   000001A0   20008DE2           ADD      R0,SP,#+32
   \   000001A4   01002DE9           PUSH     {R0}
   \   000001A8   20008DE2           ADD      R0,SP,#+32
   \   000001AC   01002DE9           PUSH     {R0}
   \   000001B0   20008DE2           ADD      R0,SP,#+32
   \   000001B4   01002DE9           PUSH     {R0}
   \   000001B8   20008DE2           ADD      R0,SP,#+32
   \   000001BC   01002DE9           PUSH     {R0}
   \   000001C0   20008DE2           ADD      R0,SP,#+32
   \   000001C4   01002DE9           PUSH     {R0}
   \   000001C8   048096E5           LDR      R8,[R6, #+4]
   \   000001CC   0C1096E5           LDR      R1,[R6, #+12]
   \   000001D0   248098E5           LDR      R8,[R8, #+36]
   \   000001D4   080096E5           LDR      R0,[R6, #+8]
   \   000001D8   14308DE2           ADD      R3,SP,#+20
   \   000001DC   20208DE2           ADD      R2,SP,#+32
   \   000001E0   38FF2FE1           BLX      R8
    155            	                 
    156            //---------------------
    157          	log("dll->png_get_IHDR(png_read_ptr...");
   \   000001E4   AE0F87E2           ADD      R0,R7,#+696
   \   000001E8   ........           BL       ??log
    158            //---------------------
    159          
    160            row_pointers = (png_bytep*) malloc(sizeof(png_bytep) * height);
   \   000001EC   14009DE5           LDR      R0,[SP, #+20]
   \   000001F0   0001A0E1           LSL      R0,R0,#+2
   \   000001F4   030100EF           SWI      +259
   \   000001F8   180086E5           STR      R0,[R6, #+24]
    161            for (y=0; y<height; y++)
   \   000001FC   0000A0E3           MOV      R0,#+0
   \   00000200   000086E5           STR      R0,[R6, #+0]
   \   00000204   14009DE5           LDR      R0,[SP, #+20]
   \   00000208   14D08DE2           ADD      SP,SP,#+20
   \   0000020C   000050E3           CMP      R0,#+0
   \   00000210   0C00001A           BNE      ??ReadWrite_8
   \   00000214   100000EA           B        ??ReadWrite_9
    162                row_pointers[y] = (png_byte*) malloc(dll->png_get_rowbytes(png_read_ptr,info_read_ptr));
   \                     ??ReadWrite_10:
   \   00000218   042096E5           LDR      R2,[R6, #+4]
   \   0000021C   0C1096E5           LDR      R1,[R6, #+12]
   \   00000220   080096E5           LDR      R0,[R6, #+8]
   \   00000224   402092E5           LDR      R2,[R2, #+64]
   \   00000228   32FF2FE1           BLX      R2
   \   0000022C   030100EF           SWI      +259
   \   00000230   001096E5           LDR      R1,[R6, #+0]
   \   00000234   182096E5           LDR      R2,[R6, #+24]
   \   00000238   010182E7           STR      R0,[R2, +R1, LSL #+2]
   \   0000023C   000096E5           LDR      R0,[R6, #+0]
   \   00000240   010080E2           ADD      R0,R0,#+1
   \   00000244   000086E5           STR      R0,[R6, #+0]
   \                     ??ReadWrite_8:
   \   00000248   B4029FE5           LDR      R0,??ReadWrite_1+0x4  ;; y
   \   0000024C   00109DE5           LDR      R1,[SP, #+0]
   \   00000250   000090E5           LDR      R0,[R0, #+0]
   \   00000254   010050E1           CMP      R0,R1
   \   00000258   EEFFFF3A           BCC      ??ReadWrite_10
    163                 
    164            //---------------------
    165          	log("row_pointers = (png_bytep*) malloc(...");
   \                     ??ReadWrite_9:
   \   0000025C   B70F87E2           ADD      R0,R7,#+732
   \   00000260   ........           BL       ??log
    166            //---------------------  
    167          
    168            dll->png_read_image(png_read_ptr, row_pointers);
   \   00000264   042096E5           LDR      R2,[R6, #+4]
   \   00000268   181096E5           LDR      R1,[R6, #+24]
   \   0000026C   080096E5           LDR      R0,[R6, #+8]
   \   00000270   442092E5           LDR      R2,[R2, #+68]
   \   00000274   32FF2FE1           BLX      R2
    169            //---------------------
    170          	log("dll->png_read_image(png_read_ptr...");
   \   00000278   0700A0E1           MOV      R0,R7
   \   0000027C   ........           BL       ??log
    171            //---------------------
    172          
    173            // освобождаем память выделенную для библиотеки libpng
    174            dll->png_destroy_read_struct(&png_read_ptr, 0, 0);
   \   00000280   043096E5           LDR      R3,[R6, #+4]
   \   00000284   0020A0E3           MOV      R2,#+0
   \   00000288   483093E5           LDR      R3,[R3, #+72]
   \   0000028C   0010A0E3           MOV      R1,#+0
   \   00000290   080086E2           ADD      R0,R6,#+8
   \   00000294   33FF2FE1           BLX      R3
    175            //---------------------
    176          	log("dll->png_destroy_read_struct(&png_read_ptr...");
   \   00000298   240087E2           ADD      R0,R7,#+36
   \   0000029C   ........           BL       ??log
    177            //---------------------
    178            
    179            fclose(fpIn);
   \   000002A0   08009DE5           LDR      R0,[SP, #+8]
   \   000002A4   170100EF           SWI      +279
    180          
    181          
    182            /*------ Запись png-файла -----*/
    183          
    184           
    185            if (!((fpOut=_fopen(fpath, fname2, WA_Create+WA_Write, 0x1FF ,0))>=0))
   \   000002A8   0000A0E3           MOV      R0,#+0
   \   000002AC   01002DE9           PUSH     {R0}
   \   000002B0   FF30A0E3           MOV      R3,#+255
   \   000002B4   403F83E3           ORR      R3,R3,#0x100
   \   000002B8   0A20A0E3           MOV      R2,#+10
   \   000002BC   0510A0E1           MOV      R1,R5
   \   000002C0   0400A0E1           MOV      R0,R4
   \   000002C4   160100EF           SWI      +278
   \   000002C8   08008DE5           STR      R0,[SP, #+8]
   \   000002CC   000050E3           CMP      R0,#+0
   \   000002D0   04D08DE2           ADD      SP,SP,#+4
    186                  return 5;
   \   000002D4   0500A043           MOVMI    R0,#+5
   \   000002D8   8600004A           BMI      ??ReadWrite_3
    187                  
    188            //---------------------
    189          	log("fpOut=_fopen");
   \   000002DC   540087E2           ADD      R0,R7,#+84
   \   000002E0   ........           BL       ??log
    190            //---------------------
    191          
    192            png_write_ptr = dll->png_create_write_struct_2(PNG_LIBPNG_VER_STRING,
    193                                             (png_voidp)0, 0, 0, (png_voidp)0, NULL, NULL);
   \   000002E4   0000A0E3           MOV      R0,#+0
   \   000002E8   01002DE9           PUSH     {R0}
   \   000002EC   01002DE9           PUSH     {R0}
   \   000002F0   01002DE9           PUSH     {R0}
   \   000002F4   044096E5           LDR      R4,[R6, #+4]
   \   000002F8   0030A0E3           MOV      R3,#+0
   \   000002FC   4C4094E5           LDR      R4,[R4, #+76]
   \   00000300   0020A0E1           MOV      R2,R0
   \   00000304   0010A0E1           MOV      R1,R0
   \   00000308   7F0F87E2           ADD      R0,R7,#+508
   \   0000030C   34FF2FE1           BLX      R4
   \   00000310   100086E5           STR      R0,[R6, #+16]
    194            //---------------------
    195          	log("png_write_ptr = dll->png_create_write_struct_2(PNG_LIB");
   \   00000314   640087E2           ADD      R0,R7,#+100
   \   00000318   ........           BL       ??log
    196            //---------------------
    197          
    198            if (png_write_ptr == NULL)
   \   0000031C   100096E5           LDR      R0,[R6, #+16]
   \   00000320   0CD08DE2           ADD      SP,SP,#+12
   \   00000324   000050E3           CMP      R0,#+0
   \   00000328   0500001A           BNE      ??ReadWrite_11
    199            {
    200              fclose(fpOut);
   \   0000032C   04009DE5           LDR      R0,[SP, #+4]
   \   00000330   170100EF           SWI      +279
    201              //---------------------
    202          	  log("png_write_ptr == NULL");
   \   00000334   DC019FE5           LDR      R0,??ReadWrite_1+0x18  ;; `?<Constant "dll->png_read_image(p...">` + 156
   \   00000338   ........           BL       ??log
    203              //---------------------
    204              return 6;
   \   0000033C   0600A0E3           MOV      R0,#+6
   \   00000340   85FFFFEA           B        ??ReadWrite_6
    205            }
    206             
    207          
    208            info_write_ptr = dll->png_create_info_struct(png_write_ptr);
   \                     ??ReadWrite_11:
   \   00000344   041096E5           LDR      R1,[R6, #+4]
   \   00000348   141091E5           LDR      R1,[R1, #+20]
   \   0000034C   31FF2FE1           BLX      R1
   \   00000350   140086E5           STR      R0,[R6, #+20]
    209            if (info_write_ptr == NULL)
   \   00000354   000050E3           CMP      R0,#+0
   \   00000358   0B00001A           BNE      ??ReadWrite_12
    210            {
    211              fclose(fpOut);
   \   0000035C   04009DE5           LDR      R0,[SP, #+4]
   \   00000360   170100EF           SWI      +279
    212              dll->png_destroy_read_struct(&png_write_ptr,  NULL, NULL);
   \   00000364   043096E5           LDR      R3,[R6, #+4]
   \   00000368   0020A0E3           MOV      R2,#+0
   \   0000036C   483093E5           LDR      R3,[R3, #+72]
   \   00000370   0010A0E3           MOV      R1,#+0
   \   00000374   100086E2           ADD      R0,R6,#+16
   \   00000378   33FF2FE1           BLX      R3
    213              //---------------------
    214          	  log("info_write_ptr == NULL)..");
   \   0000037C   98019FE5           LDR      R0,??ReadWrite_1+0x1C  ;; `?<Constant "dll->png_read_image(p...">` + 420
   \   00000380   ........           BL       ??log
    215              //---------------------
    216              return 7;
   \   00000384   0700A0E3           MOV      R0,#+7
   \   00000388   73FFFFEA           B        ??ReadWrite_6
    217            }
    218            
    219            dll->png_set_write_fn(png_write_ptr, &fpOut, (png_rw_ptr)png_user_write, NULL);
   \                     ??ReadWrite_12:
   \   0000038C   044096E5           LDR      R4,[R6, #+4]
   \   00000390   88219FE5           LDR      R2,??ReadWrite_1+0x20  ;; ??png_user_write
   \   00000394   100096E5           LDR      R0,[R6, #+16]
   \   00000398   5C4094E5           LDR      R4,[R4, #+92]
   \   0000039C   0030A0E3           MOV      R3,#+0
   \   000003A0   04108DE2           ADD      R1,SP,#+4
   \   000003A4   34FF2FE1           BLX      R4
    220            //---------------------
    221          	log("dll->png_set_write_fn(png_write_ptr...");
   \   000003A8   B40087E2           ADD      R0,R7,#+180
   \   000003AC   ........           BL       ??log
    222            //---------------------
    223          
    224            
    225            dll->png_set_IHDR(png_write_ptr, info_write_ptr, width, height, bit_depth,
    226          	                  color_type, interlace_type, compression_type, filter_method);
   \   000003B0   20009DE5           LDR      R0,[SP, #+32]
   \   000003B4   01002DE9           PUSH     {R0}
   \   000003B8   20009DE5           LDR      R0,[SP, #+32]
   \   000003BC   01002DE9           PUSH     {R0}
   \   000003C0   20009DE5           LDR      R0,[SP, #+32]
   \   000003C4   01002DE9           PUSH     {R0}
   \   000003C8   20009DE5           LDR      R0,[SP, #+32]
   \   000003CC   01002DE9           PUSH     {R0}
   \   000003D0   20009DE5           LDR      R0,[SP, #+32]
   \   000003D4   01002DE9           PUSH     {R0}
   \   000003D8   044096E5           LDR      R4,[R6, #+4]
   \   000003DC   14309DE5           LDR      R3,[SP, #+20]
   \   000003E0   20209DE5           LDR      R2,[SP, #+32]
   \   000003E4   141096E5           LDR      R1,[R6, #+20]
   \   000003E8   100096E5           LDR      R0,[R6, #+16]
   \   000003EC   604094E5           LDR      R4,[R4, #+96]
   \   000003F0   34FF2FE1           BLX      R4
    227          	//---------------------
    228          	log("dll->png_set_IHDR(png_write_ptr...");
   \   000003F4   DC0087E2           ADD      R0,R7,#+220
   \   000003F8   ........           BL       ??log
    229            //---------------------
    230          
    231            dll->png_write_info(png_write_ptr, info_write_ptr);
   \   000003FC   042096E5           LDR      R2,[R6, #+4]
   \   00000400   141096E5           LDR      R1,[R6, #+20]
   \   00000404   100096E5           LDR      R0,[R6, #+16]
   \   00000408   682092E5           LDR      R2,[R2, #+104]
    232            //---------------------
    233          	log("dll->png_write_info(png_writ...");
    234            //---------------------
    235          
    236          
    237            // write bytes 
    238          
    239            for(unsigned int i = 0; i < height; i++) // (unsigned int i = height; i > 0; --i)
   \   0000040C   0040A0E3           MOV      R4,#+0
   \   00000410   32FF2FE1           BLX      R2
   \   00000414   400F87E2           ADD      R0,R7,#+256
   \   00000418   ........           BL       ??log
   \   0000041C   14009DE5           LDR      R0,[SP, #+20]
   \   00000420   14D08DE2           ADD      SP,SP,#+20
   \   00000424   000050E3           CMP      R0,#+0
   \   00000428   0700001A           BNE      ??ReadWrite_13
   \   0000042C   090000EA           B        ??ReadWrite_14
    240            {
    241              dll->png_write_row(png_write_ptr, row_pointers[i]);
   \                     ??ReadWrite_15:
   \   00000430   180096E5           LDR      R0,[R6, #+24]
   \   00000434   042096E5           LDR      R2,[R6, #+4]
   \   00000438   041190E7           LDR      R1,[R0, +R4, LSL #+2]
   \   0000043C   100096E5           LDR      R0,[R6, #+16]
   \   00000440   6C2092E5           LDR      R2,[R2, #+108]
    242            }
   \   00000444   014084E2           ADD      R4,R4,#+1
   \   00000448   32FF2FE1           BLX      R2
   \                     ??ReadWrite_13:
   \   0000044C   00009DE5           LDR      R0,[SP, #+0]
   \   00000450   000054E1           CMP      R4,R0
   \   00000454   F5FFFF3A           BCC      ??ReadWrite_15
    243            //---------------------
    244          	log("(unsigned int i = height; i > 0; --i)");
   \                     ??ReadWrite_14:
   \   00000458   480F87E2           ADD      R0,R7,#+288
   \   0000045C   ........           BL       ??log
    245            //---------------------
    246            
    247            dll->png_write_end(png_write_ptr, info_write_ptr);
   \   00000460   042096E5           LDR      R2,[R6, #+4]
   \   00000464   141096E5           LDR      R1,[R6, #+20]
   \   00000468   100096E5           LDR      R0,[R6, #+16]
   \   0000046C   702092E5           LDR      R2,[R2, #+112]
    248            //---------------------
    249          	log("dll->png_write_end(png_write_ptr, info_write_ptr);");
    250            //---------------------
    251               
    252            
    253            /* cleanup heap allocation */
    254            for(int i=0; i<height; i++) //(y=height; y > 0; --y)
   \   00000470   0040A0E3           MOV      R4,#+0
   \   00000474   32FF2FE1           BLX      R2
   \   00000478   520F87E2           ADD      R0,R7,#+328
   \   0000047C   ........           BL       ??log
   \   00000480   00009DE5           LDR      R0,[SP, #+0]
   \   00000484   000050E3           CMP      R0,#+0
   \   00000488   0500001A           BNE      ??ReadWrite_16
   \   0000048C   070000EA           B        ??ReadWrite_17
    255              mfree(row_pointers[i]);
   \                     ??ReadWrite_18:
   \   00000490   8C009FE5           LDR      R0,??ReadWrite_1+0x24  ;; y + 24
   \   00000494   000090E5           LDR      R0,[R0, #+0]
   \   00000498   040190E7           LDR      R0,[R0, +R4, LSL #+2]
   \   0000049C   014084E2           ADD      R4,R4,#+1
   \   000004A0   040100EF           SWI      +260
   \                     ??ReadWrite_16:
   \   000004A4   00009DE5           LDR      R0,[SP, #+0]
   \   000004A8   000054E1           CMP      R4,R0
   \   000004AC   F7FFFF3A           BCC      ??ReadWrite_18
    256            mfree(row_pointers);
   \                     ??ReadWrite_17:
   \   000004B0   180096E5           LDR      R0,[R6, #+24]
   \   000004B4   040100EF           SWI      +260
    257            //---------------------
    258          //	log("mfree(row_pointers);");
    259            //---------------------
    260          
    261            dll->png_destroy_write_struct(&png_write_ptr, &info_write_ptr);
   \   000004B8   042096E5           LDR      R2,[R6, #+4]
   \   000004BC   141086E2           ADD      R1,R6,#+20
   \   000004C0   582092E5           LDR      R2,[R2, #+88]
   \   000004C4   100086E2           ADD      R0,R6,#+16
   \   000004C8   32FF2FE1           BLX      R2
    262            //---------------------
    263          	log("dll->png_destroy_write_struct(&png...");
   \   000004CC   54009FE5           LDR      R0,??ReadWrite_1+0x28  ;; `?<Constant "dll->png_read_image(p...">` + 380
   \   000004D0   ........           BL       ??log
    264            //---------------------
    265            
    266            fclose(fpOut);
   \   000004D4   04009DE5           LDR      R0,[SP, #+4]
   \   000004D8   170100EF           SWI      +279
    267           
    268            if(dll)
   \   000004DC   040096E5           LDR      R0,[R6, #+4]
   \   000004E0   000050E3           CMP      R0,#+0
   \   000004E4   0300000A           BEQ      ??ReadWrite_3
    269              UnLoadDLL(dll);
   \   000004E8   3C009FE5           LDR      R0,??ReadWrite_1+0x2C  ;; y + 4
   \   000004EC   000090E5           LDR      R0,[R0, #+0]
   \   000004F0   0F0100EF           SWI      +271
    270          
    271            return 0;
   \   000004F4   0000A0E3           MOV      R0,#+0
   \                     ??ReadWrite_3:
   \   000004F8   5CD08DE2           ADD      SP,SP,#+92       ;; stack cleaning
   \   000004FC   F081BDE8           POP      {R4-R8,PC}       ;; return
   \                     ??ReadWrite_1:
   \   00000500   ........           DC32     `?<Constant "dll->png_read_image(p...">`
   \   00000504   ........           DC32     y
   \   00000508   ........           DC32     `?<Constant "dll->png_read_image(p...">` + 460
   \   0000050C   ........           DC32     `?<Constant "dll->png_read_image(p...">` + 484
   \   00000510   ........           DC32     `?<Constant "dll->png_read_image(p...">` + 576
   \   00000514   ........           DC32     ??png_user_read
   \   00000518   ........           DC32     `?<Constant "dll->png_read_image(p...">` + 156
   \   0000051C   ........           DC32     `?<Constant "dll->png_read_image(p...">` + 420
   \   00000520   ........           DC32     ??png_user_write
   \   00000524   ........           DC32     y + 24
   \   00000528   ........           DC32     `?<Constant "dll->png_read_image(p...">` + 380
   \   0000052C   ........           DC32     y + 4
    272           }

   \                                 In segment DATA_C, align 4, align-sorted
   \                     `?<Constant "\\n---------------\\n %s">`:
   \   00000000   0A2D2D2D2D2D       DC8 "\012---------------\012 %s"
   \              2D2D2D2D2D2D
   \              2D2D2D2D0A20
   \              257300      
   \   00000015   000000             DC8 0, 0, 0
   \   00000018   630061007200       DC8 63H, 0, 61H, 0, 72H, 0, 64H, 0
   \              6400        
   \   00000020   2F0074006500       DC8 2FH, 0, 74H, 0, 65H, 0, 73H, 0
   \              7300        
   \   00000028   74002F007000       DC8 74H, 0, 2FH, 0, 70H, 0, 6EH, 0
   \              6E00        
   \   00000030   67002F004C00       DC8 67H, 0, 2FH, 0, 4CH, 0, 6FH, 0
   \              6F00        
   \   00000038   67002E007400       DC8 67H, 0, 2EH, 0, 74H, 0, 78H, 0
   \              7800        
   \   00000040   74000000           DC8 74H, 0, 0, 0

   \                                 In segment DATA_C, align 4, align-sorted
   \                     `?<Constant "dll->png_read_image(p...">`:
   \   00000000   646C6C2D3E70       DC8 "dll->png_read_image(png_read_ptr..."
   \              6E675F726561
   \              645F696D6167
   \              6528706E675F
   \              726561645F70
   \              74722E2E2E00
   \   00000024   646C6C2D3E70       DC8 "dll->png_destroy_read_struct(&png_read_ptr..."
   \              6E675F646573
   \              74726F795F72
   \              6561645F7374
   \              727563742826
   \              706E675F7265
   \              61645F707472
   \              2E2E2E00    
   \   00000052   0000               DC8 0, 0
   \   00000054   66704F75743D       DC8 "fpOut=_fopen"
   \              5F666F70656E
   \              00          
   \   00000061   000000             DC8 0, 0, 0
   \   00000064   706E675F7772       DC8 70H, 6EH, 67H, 5FH, 77H, 72H, 69H, 74H
   \              6974        
   \   0000006C   655F70747220       DC8 65H, 5FH, 70H, 74H, 72H, 20H, 3DH, 20H
   \              3D20        
   \   00000074   646C6C2D3E70       DC8 64H, 6CH, 6CH, 2DH, 3EH, 70H, 6EH, 67H
   \              6E67        
   \   0000007C   5F6372656174       DC8 5FH, 63H, 72H, 65H, 61H, 74H, 65H, 5FH
   \              655F        
   \   00000084   77726974655F       DC8 77H, 72H, 69H, 74H, 65H, 5FH, 73H, 74H
   \              7374        
   \   0000008C   727563745F32       DC8 72H, 75H, 63H, 74H, 5FH, 32H, 28H, 50H
   \              2850        
   \   00000094   4E475F4C4942       DC8 4EH, 47H, 5FH, 4CH, 49H, 42H, 0
   \              00          
   \   0000009B   00                 DC8 0
   \   0000009C   706E675F7772       DC8 "png_write_ptr == NULL"
   \              6974655F7074
   \              72203D3D204E
   \              554C4C00    
   \   000000B2   0000               DC8 0, 0
   \   000000B4   646C6C2D3E70       DC8 "dll->png_set_write_fn(png_write_ptr..."
   \              6E675F736574
   \              5F7772697465
   \              5F666E28706E
   \              675F77726974
   \              655F7074722E
   \              2E2E00      
   \   000000DB   00                 DC8 0
   \   000000DC   646C6C2D3E70       DC8 "dll->png_set_IHDR(png_write_ptr..."
   \              6E675F736574
   \              5F4948445228
   \              706E675F7772
   \              6974655F7074
   \              722E2E2E00  
   \   000000FF   00                 DC8 0
   \   00000100   646C6C2D3E70       DC8 "dll->png_write_info(png_writ..."
   \              6E675F777269
   \              74655F696E66
   \              6F28706E675F
   \              777269742E2E
   \              2E00        
   \   00000120   28756E736967       DC8 "(unsigned int i = height; i > 0; --i)"
   \              6E656420696E
   \              742069203D20
   \              686569676874
   \              3B2069203E20
   \              303B202D2D69
   \              2900        
   \   00000146   0000               DC8 0, 0
   \   00000148   646C6C2D3E70       DC8 64H, 6CH, 6CH, 2DH, 3EH, 70H, 6EH, 67H
   \              6E67        
   \   00000150   5F7772697465       DC8 5FH, 77H, 72H, 69H, 74H, 65H, 5FH, 65H
   \              5F65        
   \   00000158   6E6428706E67       DC8 6EH, 64H, 28H, 70H, 6EH, 67H, 5FH, 77H
   \              5F77        
   \   00000160   726974655F70       DC8 72H, 69H, 74H, 65H, 5FH, 70H, 74H, 72H
   \              7472        
   \   00000168   2C20696E666F       DC8 2CH, 20H, 69H, 6EH, 66H, 6FH, 5FH, 77H
   \              5F77        
   \   00000170   726974655F70       DC8 72H, 69H, 74H, 65H, 5FH, 70H, 74H, 72H
   \              7472        
   \   00000178   293B00             DC8 29H, 3BH, 0
   \   0000017B   00                 DC8 0
   \   0000017C   646C6C2D3E70       DC8 "dll->png_destroy_write_struct(&png..."
   \              6E675F646573
   \              74726F795F77
   \              726974655F73
   \              747275637428
   \              26706E672E2E
   \              2E00        
   \   000001A2   0000               DC8 0, 0
   \   000001A4   696E666F5F77       DC8 "info_write_ptr == NULL).."
   \              726974655F70
   \              7472203D3D20
   \              4E554C4C292E
   \              2E00        
   \   000001BE   0000               DC8 0, 0
   \   000001C0   526561645772       DC8 "ReadWrite"
   \              69746500    
   \   000001CA   0000               DC8 0, 0
   \   000001CC   70006E006700       DC8 70H, 0, 6EH, 0, 67H, 0, 6CH, 0
   \              6C00        
   \   000001D4   690062002E00       DC8 69H, 0, 62H, 0, 2EH, 0, 64H, 0
   \              6400        
   \   000001DC   6C006C000000       DC8 6CH, 0, 6CH, 0, 0, 0
   \   000001E2   0000               DC8 0, 0
   \   000001E4   706E676C6962       DC8 "pnglib.dll"
   \              2E646C6C00  
   \   000001EF   00                 DC8 0
   \   000001F0   6670496E3D5F       DC8 "fpIn=_fopen"
   \              666F70656E00
   \   000001FC   312E342E3200       DC8 "1.4.2"
   \   00000202   0000               DC8 0, 0
   \   00000204   646C6C2D3E70       DC8 "dll->png_create_read_struct_2"
   \              6E675F637265
   \              6174655F7265
   \              61645F737472
   \              7563745F3200
   \   00000222   0000               DC8 0, 0
   \   00000224   646C6C2D3E70       DC8 "dll->png_create_info_struct"
   \              6E675F637265
   \              6174655F696E
   \              666F5F737472
   \              75637400    
   \   00000240   646C6C2D3E70       DC8 "dll->png_destroy_read_struct"
   \              6E675F646573
   \              74726F795F72
   \              6561645F7374
   \              7275637400  
   \   0000025D   000000             DC8 0, 0, 0
   \   00000260   646C6C2D3E70       DC8 "dll->png_set_read_fn(png_read_ptr..."
   \              6E675F736574
   \              5F726561645F
   \              666E28706E67
   \              5F726561645F
   \              7074722E2E2E
   \              00          
   \   00000285   000000             DC8 0, 0, 0
   \   00000288   646C6C2D3E70       DC8 "dll->png_read_info(png_read_ptr, info_read_ptr)"
   \              6E675F726561
   \              645F696E666F
   \              28706E675F72
   \              6561645F7074
   \              722C20696E66
   \              6F5F72656164
   \              5F7074722900
   \   000002B8   646C6C2D3E70       DC8 "dll->png_get_IHDR(png_read_ptr..."
   \              6E675F676574
   \              5F4948445228
   \              706E675F7265
   \              61645F707472
   \              2E2E2E00    
   \   000002DA   0000               DC8 0, 0
   \   000002DC   726F775F706F       DC8 "row_pointers = (png_bytep*) malloc(..."
   \              696E74657273
   \              203D2028706E
   \              675F62797465
   \              702A29206D61
   \              6C6C6F63282E
   \              2E2E00      
   \   00000303   00                 DC8 0

   \                                 In segment DATA_C, align 4, align-sorted
   \                     `?<Constant L"\\x74\\x65\\x73\\x74\\x5f\\x69\\x6e\\x70\\`:
   \   00000000   740065007300       DC8 74H, 0, 65H, 0, 73H, 0, 74H, 0
   \              7400        
   \   00000008   5F0069006E00       DC8 5FH, 0, 69H, 0, 6EH, 0, 70H, 0
   \              7000        
   \   00000010   750074002E00       DC8 75H, 0, 74H, 0, 2EH, 0, 70H, 0
   \              7000        
   \   00000018   6E0067000000       DC8 6EH, 0, 67H, 0, 0, 0
   \   0000001E   0000               DC8 0, 0
   \   00000020   0A2D2D2D2D2D       DC8 "\012---------------\012 main"
   \              2D2D2D2D2D2D
   \              2D2D2D2D0A20
   \              6D61696E00  
   \   00000037   00                 DC8 0
   \   00000038   50004E004700       DC8 50H, 0, 4EH, 0, 47H, 0, 20H, 0
   \              2000        
   \   00000040   660069006C00       DC8 66H, 0, 69H, 0, 6CH, 0, 65H, 0
   \              6500        
   \   00000048   200063006F00       DC8 20H, 0, 63H, 0, 6FH, 0, 6EH, 0
   \              6E00        
   \   00000050   760065007200       DC8 76H, 0, 65H, 0, 72H, 0, 74H, 0
   \              7400        
   \   00000058   0A0045005200       DC8 0AH, 0, 45H, 0, 52H, 0, 52H, 0
   \              5200        
   \   00000060   4F0052002100       DC8 4FH, 0, 52H, 0, 21H, 0, 21H, 0
   \              2100        
   \   00000068   21000A002000       DC8 21H, 0, 0AH, 0, 20H, 0, 3DH, 4
   \              3D04        
   \   00000070   350442042000       DC8 35H, 4, 42H, 4, 20H, 0, 32H, 4
   \              3204        
   \   00000078   45043E043404       DC8 45H, 4, 3EH, 4, 34H, 4, 3DH, 4
   \              3D04        
   \   00000080   3E0433043E04       DC8 3EH, 4, 33H, 4, 3EH, 4, 20H, 0
   \              2000        
   \   00000088   440430043904       DC8 44H, 4, 30H, 4, 39H, 4, 3BH, 4
   \              3B04        
   \   00000090   30040000           DC8 30H, 4, 0, 0
   \   00000094   50004E004700       DC8 50H, 0, 4EH, 0, 47H, 0, 20H, 0
   \              2000        
   \   0000009C   660069006C00       DC8 66H, 0, 69H, 0, 6CH, 0, 65H, 0
   \              6500        
   \   000000A4   200063006F00       DC8 20H, 0, 63H, 0, 6FH, 0, 6EH, 0
   \              6E00        
   \   000000AC   760065007200       DC8 76H, 0, 65H, 0, 72H, 0, 74H, 0
   \              7400        
   \   000000B4   0A0045005200       DC8 0AH, 0, 45H, 0, 52H, 0, 52H, 0
   \              5200        
   \   000000BC   4F0052002100       DC8 4FH, 0, 52H, 0, 21H, 0, 21H, 0
   \              2100        
   \   000000C4   21000A002000       DC8 21H, 0, 0AH, 0, 20H, 0, 4DH, 4
   \              4D04        
   \   000000CC   42043E042000       DC8 42H, 4, 3EH, 4, 20H, 0, 3DH, 4
   \              3D04        
   \   000000D4   350420007000       DC8 35H, 4, 20H, 0, 70H, 0, 6EH, 0
   \              6E00        
   \   000000DC   67000000           DC8 67H, 0, 0, 0
   \   000000E0   50004E004700       DC8 50H, 0, 4EH, 0, 47H, 0, 20H, 0
   \              2000        
   \   000000E8   660069006C00       DC8 66H, 0, 69H, 0, 6CH, 0, 65H, 0
   \              6500        
   \   000000F0   200063006F00       DC8 20H, 0, 63H, 0, 6FH, 0, 6EH, 0
   \              6E00        
   \   000000F8   760065007200       DC8 76H, 0, 65H, 0, 72H, 0, 74H, 0
   \              7400        
   \   00000100   0A0045005200       DC8 0AH, 0, 45H, 0, 52H, 0, 52H, 0
   \              5200        
   \   00000108   4F0052002100       DC8 4FH, 0, 52H, 0, 21H, 0, 21H, 0
   \              2100        
   \   00000110   21000A002000       DC8 21H, 0, 0AH, 0, 20H, 0, 3DH, 4
   \              3D04        
   \   00000118   350442042000       DC8 35H, 4, 42H, 4, 20H, 0, 41H, 4
   \              4104        
   \   00000120   420440044304       DC8 42H, 4, 40H, 4, 43H, 4, 3AH, 4
   \              3A04        
   \   00000128   420443044004       DC8 42H, 4, 43H, 4, 40H, 4, 4BH, 4
   \              4B04        
   \   00000130   200072006500       DC8 20H, 0, 72H, 0, 65H, 0, 65H, 0
   \              6500        
   \   00000138   64000000           DC8 64H, 0, 0, 0
   \   0000013C   50004E004700       DC8 50H, 0, 4EH, 0, 47H, 0, 20H, 0
   \              2000        
   \   00000144   660069006C00       DC8 66H, 0, 69H, 0, 6CH, 0, 65H, 0
   \              6500        
   \   0000014C   200063006F00       DC8 20H, 0, 63H, 0, 6FH, 0, 6EH, 0
   \              6E00        
   \   00000154   760065007200       DC8 76H, 0, 65H, 0, 72H, 0, 74H, 0
   \              7400        
   \   0000015C   0A0045005200       DC8 0AH, 0, 45H, 0, 52H, 0, 52H, 0
   \              5200        
   \   00000164   4F0052002100       DC8 4FH, 0, 52H, 0, 21H, 0, 21H, 0
   \              2100        
   \   0000016C   21000A002000       DC8 21H, 0, 0AH, 0, 20H, 0, 3DH, 4
   \              3D04        
   \   00000174   350442042000       DC8 35H, 4, 42H, 4, 20H, 0, 41H, 4
   \              4104        
   \   0000017C   420440044304       DC8 42H, 4, 40H, 4, 43H, 4, 3AH, 4
   \              3A04        
   \   00000184   420443044004       DC8 42H, 4, 43H, 4, 40H, 4, 4BH, 4
   \              4B04        
   \   0000018C   200072006500       DC8 20H, 0, 72H, 0, 65H, 0, 65H, 0
   \              6500        
   \   00000194   640020006900       DC8 64H, 0, 20H, 0, 69H, 0, 6EH, 0
   \              6E00        
   \   0000019C   66000000           DC8 66H, 0, 0, 0
   \   000001A0   50004E004700       DC8 50H, 0, 4EH, 0, 47H, 0, 20H, 0
   \              2000        
   \   000001A8   660069006C00       DC8 66H, 0, 69H, 0, 6CH, 0, 65H, 0
   \              6500        
   \   000001B0   200063006F00       DC8 20H, 0, 63H, 0, 6FH, 0, 6EH, 0
   \              6E00        
   \   000001B8   760065007200       DC8 76H, 0, 65H, 0, 72H, 0, 74H, 0
   \              7400        
   \   000001C0   0A0045005200       DC8 0AH, 0, 45H, 0, 52H, 0, 52H, 0
   \              5200        
   \   000001C8   4F0052002100       DC8 4FH, 0, 52H, 0, 21H, 0, 21H, 0
   \              2100        
   \   000001D0   21000A002000       DC8 21H, 0, 0AH, 0, 20H, 0, 3DH, 4
   \              3D04        
   \   000001D8   350442042000       DC8 35H, 4, 42H, 4, 20H, 0, 32H, 4
   \              3204        
   \   000001E0   4B0445043E04       DC8 4BH, 4, 45H, 4, 3EH, 4, 34H, 4
   \              3404        
   \   000001E8   3D043E043304       DC8 3DH, 4, 3EH, 4, 33H, 4, 3EH, 4
   \              3E04        
   \   000001F0   200044043004       DC8 20H, 0, 44H, 4, 30H, 4, 39H, 4
   \              3904        
   \   000001F8   3B0430040000       DC8 3BH, 4, 30H, 4, 0, 0
   \   000001FE   0000               DC8 0, 0
   \   00000200   50004E004700       DC8 50H, 0, 4EH, 0, 47H, 0, 20H, 0
   \              2000        
   \   00000208   660069006C00       DC8 66H, 0, 69H, 0, 6CH, 0, 65H, 0
   \              6500        
   \   00000210   200063006F00       DC8 20H, 0, 63H, 0, 6FH, 0, 6EH, 0
   \              6E00        
   \   00000218   760065007200       DC8 76H, 0, 65H, 0, 72H, 0, 74H, 0
   \              7400        
   \   00000220   0A0045005200       DC8 0AH, 0, 45H, 0, 52H, 0, 52H, 0
   \              5200        
   \   00000228   4F0052002100       DC8 4FH, 0, 52H, 0, 21H, 0, 21H, 0
   \              2100        
   \   00000230   21000A002000       DC8 21H, 0, 0AH, 0, 20H, 0, 3DH, 4
   \              3D04        
   \   00000238   350442042000       DC8 35H, 4, 42H, 4, 20H, 0, 41H, 4
   \              4104        
   \   00000240   420440044304       DC8 42H, 4, 40H, 4, 43H, 4, 3AH, 4
   \              3A04        
   \   00000248   420443044004       DC8 42H, 4, 43H, 4, 40H, 4, 4BH, 4
   \              4B04        
   \   00000250   200077007200       DC8 20H, 0, 77H, 0, 72H, 0, 69H, 0
   \              6900        
   \   00000258   740065000000       DC8 74H, 0, 65H, 0, 0, 0
   \   0000025E   0000               DC8 0, 0
   \   00000260   50004E004700       DC8 50H, 0, 4EH, 0, 47H, 0, 20H, 0
   \              2000        
   \   00000268   660069006C00       DC8 66H, 0, 69H, 0, 6CH, 0, 65H, 0
   \              6500        
   \   00000270   200063006F00       DC8 20H, 0, 63H, 0, 6FH, 0, 6EH, 0
   \              6E00        
   \   00000278   760065007200       DC8 76H, 0, 65H, 0, 72H, 0, 74H, 0
   \              7400        
   \   00000280   0A0045005200       DC8 0AH, 0, 45H, 0, 52H, 0, 52H, 0
   \              5200        
   \   00000288   4F0052002100       DC8 4FH, 0, 52H, 0, 21H, 0, 21H, 0
   \              2100        
   \   00000290   21000A002000       DC8 21H, 0, 0AH, 0, 20H, 0, 3DH, 4
   \              3D04        
   \   00000298   350442042000       DC8 35H, 4, 42H, 4, 20H, 0, 41H, 4
   \              4104        
   \   000002A0   35042E002000       DC8 35H, 4, 2EH, 0, 20H, 0, 77H, 0
   \              7700        
   \   000002A8   72002E002000       DC8 72H, 0, 2EH, 0, 20H, 0, 69H, 0
   \              6900        
   \   000002B0   6E0066000000       DC8 6EH, 0, 66H, 0, 0, 0
   \   000002B6   0000               DC8 0, 0
   \   000002B8   50004E004700       DC8 50H, 0, 4EH, 0, 47H, 0, 20H, 0
   \              2000        
   \   000002C0   660069006C00       DC8 66H, 0, 69H, 0, 6CH, 0, 65H, 0
   \              6500        
   \   000002C8   200063006F00       DC8 20H, 0, 63H, 0, 6FH, 0, 6EH, 0
   \              6E00        
   \   000002D0   760065007200       DC8 76H, 0, 65H, 0, 72H, 0, 74H, 0
   \              7400        
   \   000002D8   0A0045005200       DC8 0AH, 0, 45H, 0, 52H, 0, 52H, 0
   \              5200        
   \   000002E0   4F0052002100       DC8 4FH, 0, 52H, 0, 21H, 0, 21H, 0
   \              2100        
   \   000002E8   21000A002000       DC8 21H, 0, 0AH, 0, 20H, 0, 3DH, 4
   \              3D04        
   \   000002F0   350442042000       DC8 35H, 4, 42H, 4, 20H, 0, 44H, 0
   \              4400        
   \   000002F8   4C004C000000       DC8 4CH, 0, 4CH, 0, 0, 0
   \   000002FE   0000               DC8 0, 0
   \   00000300   50004E004700       DC8 50H, 0, 4EH, 0, 47H, 0, 20H, 0
   \              2000        
   \   00000308   660069006C00       DC8 66H, 0, 69H, 0, 6CH, 0, 65H, 0
   \              6500        
   \   00000310   200063006F00       DC8 20H, 0, 63H, 0, 6FH, 0, 6EH, 0
   \              6E00        
   \   00000318   760065007200       DC8 76H, 0, 65H, 0, 72H, 0, 74H, 0
   \              7400        
   \   00000320   20006F006B00       DC8 20H, 0, 6FH, 0, 6BH, 0, 0, 0
   \              0000        
   \   00000328   630061007200       DC8 63H, 0, 61H, 0, 72H, 0, 64H, 0
   \              6400        
   \   00000330   2F0074006500       DC8 2FH, 0, 74H, 0, 65H, 0, 73H, 0
   \              7300        
   \   00000338   74002F007000       DC8 74H, 0, 2FH, 0, 70H, 0, 6EH, 0
   \              6E00        
   \   00000340   67002F000000       DC8 67H, 0, 2FH, 0, 0, 0
   \   00000346   0000               DC8 0, 0
   \   00000348   740065007300       DC8 74H, 0, 65H, 0, 73H, 0, 74H, 0
   \              7400        
   \   00000350   5F006F007500       DC8 5FH, 0, 6FH, 0, 75H, 0, 74H, 0
   \              7400        
   \   00000358   700075007400       DC8 70H, 0, 75H, 0, 74H, 0, 2EH, 0
   \              2E00        
   \   00000360   70006E006700       DC8 70H, 0, 6EH, 0, 67H, 0, 0, 0
   \              0000        

   \                                 In segment DATA_C, align 4, align-sorted
   \                     `?<Constant "png_user_write">`:
   \   00000000   706E675F7573       DC8 "png_user_write"
   \              65725F777269
   \              746500      
   \   0000000F   00                 DC8 0
    273          
    274          

   Maximum stack usage in bytes:

     Function                       CSTACK
     --------                       ------
     ReadWrite(wchar_t *, wchar_t *, wchar_t *)
                                      136
     elf_exit()                         4
     log(char *)                      612
     main()                            16
     png_user_read(png_structp, png_bytep, size_t)
                                        4
     png_user_write(png_structp, png_bytep, size_t)
                                       16


   Segment part sizes:

     Function/Label                 Bytes
     --------------                 -----
     x                                 4
     y                                28
     width                             4
     height                            4
     color_type                        1
     bit_depth                         1
     log(char *)                     108
     elf_exit()                       28
     png_user_read(png_structp, png_bytep, size_t)
                                      20
     png_user_write(png_structp, png_bytep, size_t)
                                      52
     main()                          432
     ReadWrite(wchar_t *, wchar_t *, wchar_t *)
                                    1328
     ?<Constant "\n---------------\n %s">
                                      68
     ?<Constant "dll->png_read_image(p...">
                                     772
     ?<Constant L"\x74\x65\x73\x74\x5f\x69\x6e\x70\
                                     872
     ?<Constant "png_user_write">     16
      Others                          48

 
 2 004 bytes in segment CODE
 1 728 bytes in segment DATA_C
    42 bytes in segment DATA_Z
    12 bytes in segment INITTAB
 
 1 968 bytes of CODE  memory (+ 48 bytes shared)
 1 728 bytes of CONST memory
    42 bytes of DATA  memory

Errors: none
Warnings: none
